; Function Attrs: nounwind uwtable
define ptr @l_Array_mapM_x27_go___at_Lean_PersistentHashMap_map___spec__5___rarg(ptr noundef %0, ptr noundef readonly captures(none) %1, ptr noundef %2, ptr noundef %3, ptr readnone captures(none) %4) local_unnamed_addr #2 {
  %6 = getelementptr i8, ptr %1, i64 8
  %7 = getelementptr inbounds nuw i8, ptr %1, i64 24
  %8 = ptrtoint ptr %0 to i64
  %9 = and i64 %8, 1
  %.not51 = icmp eq i64 %9, 0
  br label %10

10:                                               ; preds = %lean_dec.exit, %5
  %.024 = phi ptr [ %3, %5 ], [ %66, %lean_dec.exit ]
  %.022 = phi ptr [ %2, %5 ], [ %.0.i40, %lean_dec.exit ]
  %.val = load i64, ptr %6, align 8, !tbaa !12
  %11 = shl i64 %.val, 1
  %12 = or disjoint i64 %11, 1
  %13 = inttoptr i64 %12 to ptr
  %14 = ptrtoint ptr %.022 to i64
  %15 = and i64 %14, 1
  %.not = icmp eq i64 %15, 0
  br i1 %.not, label %lean_dec.exit28.thread, label %lean_dec.exit28, !prof !16

lean_dec.exit28:                                  ; preds = %10
  %.not49 = icmp eq ptr %.022, %13
  br i1 %.not49, label %lean_dec.exit26, label %17

lean_dec.exit28.thread:                           ; preds = %10
  %16 = tail call zeroext i1 @lean_nat_big_eq(ptr noundef %.022, ptr noundef nonnull %13) #7
  br i1 %16, label %.thread, label %17

17:                                               ; preds = %lean_dec.exit28.thread, %lean_dec.exit28
  %18 = lshr i64 %14, 1
  %19 = getelementptr inbounds nuw [0 x ptr], ptr %7, i64 0, i64 %18
  %20 = load ptr, ptr %19, align 8, !tbaa !9
  %21 = ptrtoint ptr %20 to i64
  %22 = and i64 %21, 1
  %.not.i.i = icmp eq i64 %22, 0
  br i1 %.not.i.i, label %23, label %lean_array_fget.exit

23:                                               ; preds = %17
  %.val.i.i.i = load i32, ptr %20, align 4, !tbaa !4
  %24 = icmp sgt i32 %.val.i.i.i, 0
  br i1 %24, label %25, label %27, !prof !11

25:                                               ; preds = %23
  %26 = add nuw i32 %.val.i.i.i, 1
  store i32 %26, ptr %20, align 4, !tbaa !4
  br label %lean_array_fget.exit

27:                                               ; preds = %23
  %.not.i.i.i = icmp eq i32 %.val.i.i.i, 0
  br i1 %.not.i.i.i, label %lean_array_fget.exit, label %28

28:                                               ; preds = %27
  tail call void @lean_inc_ref_cold(ptr noundef nonnull %20) #7
  br label %lean_array_fget.exit

lean_array_fget.exit:                             ; preds = %17, %25, %27, %28
  br i1 %.not51, label %29, label %lean_inc.exit

29:                                               ; preds = %lean_array_fget.exit
  %.val.i = load i32, ptr %0, align 4, !tbaa !4
  %30 = icmp sgt i32 %.val.i, 0
  br i1 %30, label %31, label %33, !prof !11

31:                                               ; preds = %29
  %32 = add nuw i32 %.val.i, 1
  store i32 %32, ptr %0, align 4, !tbaa !4
  br label %lean_inc.exit

33:                                               ; preds = %29
  %.not.i37 = icmp eq i32 %.val.i, 0
  br i1 %.not.i37, label %lean_inc.exit, label %34

34:                                               ; preds = %33
  tail call void @lean_inc_ref_cold(ptr noundef nonnull %0) #7
  br label %lean_inc.exit

lean_inc.exit:                                    ; preds = %34, %33, %31, %lean_array_fget.exit
  %35 = tail call ptr @lean_apply_1(ptr noundef %0, ptr noundef %20) #7
  br i1 %.not, label %45, label %36, !prof !16

36:                                               ; preds = %lean_inc.exit
  %37 = add nuw i64 %18, 1
  %38 = icmp sgt i64 %37, -1
  br i1 %38, label %39, label %43, !prof !11

39:                                               ; preds = %36
  %40 = shl nuw i64 %37, 1
  %41 = or disjoint i64 %40, 1
  %42 = inttoptr i64 %41 to ptr
  br label %lean_dec.exit

43:                                               ; preds = %36
  %44 = tail call ptr @lean_big_usize_to_nat(i64 noundef %37) #7
  br label %lean_dec.exit

45:                                               ; preds = %lean_inc.exit
  %46 = tail call ptr @lean_nat_big_add(ptr noundef %.022, ptr noundef nonnull inttoptr (i64 3 to ptr)) #7
  %47 = load i32, ptr %.022, align 4, !tbaa !4
  %48 = icmp sgt i32 %47, 1
  br i1 %48, label %49, label %51, !prof !11

49:                                               ; preds = %45
  %50 = add nsw i32 %47, -1
  store i32 %50, ptr %.022, align 4, !tbaa !4
  br label %lean_dec.exit

51:                                               ; preds = %45
  %.not.i29 = icmp eq i32 %47, 0
  br i1 %.not.i29, label %lean_dec.exit, label %52

52:                                               ; preds = %51
  tail call void @lean_dec_ref_cold(ptr noundef nonnull %.022) #7
  br label %lean_dec.exit

.thread:                                          ; preds = %lean_dec.exit28.thread
  %53 = load i32, ptr %.022, align 4, !tbaa !4
  %54 = icmp sgt i32 %53, 1
  br i1 %54, label %55, label %57, !prof !11

55:                                               ; preds = %.thread
  %56 = add nsw i32 %53, -1
  store i32 %56, ptr %.022, align 4, !tbaa !4
  br label %lean_dec.exit26

57:                                               ; preds = %.thread
  %.not.i31 = icmp eq i32 %53, 0
  br i1 %.not.i31, label %lean_dec.exit26, label %58

58:                                               ; preds = %57
  tail call void @lean_dec_ref_cold(ptr noundef nonnull %.022) #7
  br label %lean_dec.exit26

lean_dec.exit26:                                  ; preds = %lean_dec.exit28, %58, %57, %55
  br i1 %.not51, label %59, label %67

59:                                               ; preds = %lean_dec.exit26
  %60 = load i32, ptr %0, align 4, !tbaa !4
  %61 = icmp sgt i32 %60, 1
  br i1 %61, label %62, label %64, !prof !11

62:                                               ; preds = %59
  %63 = add nsw i32 %60, -1
  store i32 %63, ptr %0, align 4, !tbaa !4
  br label %67

64:                                               ; preds = %59
  %.not.i33 = icmp eq i32 %60, 0
  br i1 %.not.i33, label %67, label %65

65:                                               ; preds = %64
  tail call void @lean_dec_ref_cold(ptr noundef nonnull %0) #7
  br label %67

lean_dec.exit:                                    ; preds = %39, %43, %49, %51, %52
  %.0.i40 = phi ptr [ %46, %49 ], [ %46, %51 ], [ %46, %52 ], [ %44, %43 ], [ %42, %39 ]
  %66 = tail call ptr @lean_array_push(ptr noundef %.024, ptr noundef %35) #7
  br label %10

67:                                               ; preds = %65, %64, %62, %lean_dec.exit26
  ret ptr %.024
}